ARM GAS  /tmp/cc20gsgr.s 			page 1


   1              		.cpu cortex-m4
   2              		.eabi_attribute 27, 1
   3              		.eabi_attribute 28, 1
   4              		.eabi_attribute 20, 1
   5              		.eabi_attribute 21, 1
   6              		.eabi_attribute 23, 3
   7              		.eabi_attribute 24, 1
   8              		.eabi_attribute 25, 1
   9              		.eabi_attribute 26, 1
  10              		.eabi_attribute 30, 1
  11              		.eabi_attribute 34, 1
  12              		.eabi_attribute 18, 4
  13              		.file	"tim.c"
  14              		.text
  15              	.Ltext0:
  16              		.cfi_sections	.debug_frame
  17              		.section	.text.MX_TIM2_Init,"ax",%progbits
  18              		.align	1
  19              		.global	MX_TIM2_Init
  20              		.arch armv7e-m
  21              		.syntax unified
  22              		.thumb
  23              		.thumb_func
  24              		.fpu fpv4-sp-d16
  26              	MX_TIM2_Init:
  27              	.LFB126:
  28              		.file 1 "Src/tim.c"
   1:Src/tim.c     **** /**
   2:Src/tim.c     ****   ******************************************************************************
   3:Src/tim.c     ****   * File Name          : TIM.c
   4:Src/tim.c     ****   * Description        : This file provides code for the configuration
   5:Src/tim.c     ****   *                      of the TIM instances.
   6:Src/tim.c     ****   ******************************************************************************
   7:Src/tim.c     ****   ** This notice applies to any and all portions of this file
   8:Src/tim.c     ****   * that are not between comment pairs USER CODE BEGIN and
   9:Src/tim.c     ****   * USER CODE END. Other portions of this file, whether 
  10:Src/tim.c     ****   * inserted by the user or by software development tools
  11:Src/tim.c     ****   * are owned by their respective copyright owners.
  12:Src/tim.c     ****   *
  13:Src/tim.c     ****   * COPYRIGHT(c) 2019 STMicroelectronics
  14:Src/tim.c     ****   *
  15:Src/tim.c     ****   * Redistribution and use in source and binary forms, with or without modification,
  16:Src/tim.c     ****   * are permitted provided that the following conditions are met:
  17:Src/tim.c     ****   *   1. Redistributions of source code must retain the above copyright notice,
  18:Src/tim.c     ****   *      this list of conditions and the following disclaimer.
  19:Src/tim.c     ****   *   2. Redistributions in binary form must reproduce the above copyright notice,
  20:Src/tim.c     ****   *      this list of conditions and the following disclaimer in the documentation
  21:Src/tim.c     ****   *      and/or other materials provided with the distribution.
  22:Src/tim.c     ****   *   3. Neither the name of STMicroelectronics nor the names of its contributors
  23:Src/tim.c     ****   *      may be used to endorse or promote products derived from this software
  24:Src/tim.c     ****   *      without specific prior written permission.
  25:Src/tim.c     ****   *
  26:Src/tim.c     ****   * THIS SOFTWARE IS PROVIDED BY THE COPYRIGHT HOLDERS AND CONTRIBUTORS "AS IS"
  27:Src/tim.c     ****   * AND ANY EXPRESS OR IMPLIED WARRANTIES, INCLUDING, BUT NOT LIMITED TO, THE
  28:Src/tim.c     ****   * IMPLIED WARRANTIES OF MERCHANTABILITY AND FITNESS FOR A PARTICULAR PURPOSE ARE
  29:Src/tim.c     ****   * DISCLAIMED. IN NO EVENT SHALL THE COPYRIGHT HOLDER OR CONTRIBUTORS BE LIABLE
  30:Src/tim.c     ****   * FOR ANY DIRECT, INDIRECT, INCIDENTAL, SPECIAL, EXEMPLARY, OR CONSEQUENTIAL
ARM GAS  /tmp/cc20gsgr.s 			page 2


  31:Src/tim.c     ****   * DAMAGES (INCLUDING, BUT NOT LIMITED TO, PROCUREMENT OF SUBSTITUTE GOODS OR
  32:Src/tim.c     ****   * SERVICES; LOSS OF USE, DATA, OR PROFITS; OR BUSINESS INTERRUPTION) HOWEVER
  33:Src/tim.c     ****   * CAUSED AND ON ANY THEORY OF LIABILITY, WHETHER IN CONTRACT, STRICT LIABILITY,
  34:Src/tim.c     ****   * OR TORT (INCLUDING NEGLIGENCE OR OTHERWISE) ARISING IN ANY WAY OUT OF THE USE
  35:Src/tim.c     ****   * OF THIS SOFTWARE, EVEN IF ADVISED OF THE POSSIBILITY OF SUCH DAMAGE.
  36:Src/tim.c     ****   *
  37:Src/tim.c     ****   ******************************************************************************
  38:Src/tim.c     ****   */
  39:Src/tim.c     **** 
  40:Src/tim.c     **** /* Includes ------------------------------------------------------------------*/
  41:Src/tim.c     **** #include "tim.h"
  42:Src/tim.c     **** 
  43:Src/tim.c     **** /* USER CODE BEGIN 0 */
  44:Src/tim.c     **** 
  45:Src/tim.c     **** /* USER CODE END 0 */
  46:Src/tim.c     **** 
  47:Src/tim.c     **** TIM_HandleTypeDef htim2;
  48:Src/tim.c     **** 
  49:Src/tim.c     **** /* TIM2 init function */
  50:Src/tim.c     **** void MX_TIM2_Init(void)
  51:Src/tim.c     **** {
  29              		.loc 1 51 1 view -0
  30              		.cfi_startproc
  31              		@ args = 0, pretend = 0, frame = 48
  32              		@ frame_needed = 0, uses_anonymous_args = 0
  33 0000 00B5     		push	{lr}
  34              	.LCFI0:
  35              		.cfi_def_cfa_offset 4
  36              		.cfi_offset 14, -4
  37 0002 8DB0     		sub	sp, sp, #52
  38              	.LCFI1:
  39              		.cfi_def_cfa_offset 56
  52:Src/tim.c     ****   TIM_Encoder_InitTypeDef sConfig = {0};
  40              		.loc 1 52 3 view .LVU1
  41              		.loc 1 52 27 is_stmt 0 view .LVU2
  42 0004 2022     		movs	r2, #32
  43 0006 0021     		movs	r1, #0
  44 0008 04A8     		add	r0, sp, #16
  45 000a FFF7FEFF 		bl	memset
  46              	.LVL0:
  53:Src/tim.c     ****   TIM_MasterConfigTypeDef sMasterConfig = {0};
  47              		.loc 1 53 3 is_stmt 1 view .LVU3
  48              		.loc 1 53 27 is_stmt 0 view .LVU4
  49 000e 0023     		movs	r3, #0
  50 0010 0193     		str	r3, [sp, #4]
  51 0012 0293     		str	r3, [sp, #8]
  54:Src/tim.c     **** 
  55:Src/tim.c     ****   htim2.Instance = TIM2;
  52              		.loc 1 55 3 is_stmt 1 view .LVU5
  53              		.loc 1 55 18 is_stmt 0 view .LVU6
  54 0014 1148     		ldr	r0, .L7
  55 0016 4FF08042 		mov	r2, #1073741824
  56 001a 0260     		str	r2, [r0]
  56:Src/tim.c     ****   htim2.Init.Prescaler = 0;
  57              		.loc 1 56 3 is_stmt 1 view .LVU7
  58              		.loc 1 56 24 is_stmt 0 view .LVU8
  59 001c 4360     		str	r3, [r0, #4]
ARM GAS  /tmp/cc20gsgr.s 			page 3


  57:Src/tim.c     ****   htim2.Init.CounterMode = TIM_COUNTERMODE_UP;
  60              		.loc 1 57 3 is_stmt 1 view .LVU9
  61              		.loc 1 57 26 is_stmt 0 view .LVU10
  62 001e 8360     		str	r3, [r0, #8]
  58:Src/tim.c     ****   htim2.Init.Period = 63885;
  63              		.loc 1 58 3 is_stmt 1 view .LVU11
  64              		.loc 1 58 21 is_stmt 0 view .LVU12
  65 0020 4FF68D12 		movw	r2, #63885
  66 0024 C260     		str	r2, [r0, #12]
  59:Src/tim.c     ****   htim2.Init.ClockDivision = TIM_CLOCKDIVISION_DIV1;
  67              		.loc 1 59 3 is_stmt 1 view .LVU13
  68              		.loc 1 59 28 is_stmt 0 view .LVU14
  69 0026 0361     		str	r3, [r0, #16]
  60:Src/tim.c     ****   sConfig.EncoderMode = TIM_ENCODERMODE_TI12;
  70              		.loc 1 60 3 is_stmt 1 view .LVU15
  71              		.loc 1 60 23 is_stmt 0 view .LVU16
  72 0028 0323     		movs	r3, #3
  73 002a 0393     		str	r3, [sp, #12]
  61:Src/tim.c     ****   sConfig.IC1Polarity = TIM_ICPOLARITY_RISING;
  74              		.loc 1 61 3 is_stmt 1 view .LVU17
  62:Src/tim.c     ****   sConfig.IC1Selection = TIM_ICSELECTION_DIRECTTI;
  75              		.loc 1 62 3 view .LVU18
  76              		.loc 1 62 24 is_stmt 0 view .LVU19
  77 002c 0123     		movs	r3, #1
  78 002e 0593     		str	r3, [sp, #20]
  63:Src/tim.c     ****   sConfig.IC1Prescaler = TIM_ICPSC_DIV1;
  79              		.loc 1 63 3 is_stmt 1 view .LVU20
  64:Src/tim.c     ****   sConfig.IC1Filter = 0;
  80              		.loc 1 64 3 view .LVU21
  65:Src/tim.c     ****   sConfig.IC2Polarity = TIM_ICPOLARITY_RISING;
  81              		.loc 1 65 3 view .LVU22
  66:Src/tim.c     ****   sConfig.IC2Selection = TIM_ICSELECTION_DIRECTTI;
  82              		.loc 1 66 3 view .LVU23
  83              		.loc 1 66 24 is_stmt 0 view .LVU24
  84 0030 0993     		str	r3, [sp, #36]
  67:Src/tim.c     ****   sConfig.IC2Prescaler = TIM_ICPSC_DIV1;
  85              		.loc 1 67 3 is_stmt 1 view .LVU25
  68:Src/tim.c     ****   sConfig.IC2Filter = 0;
  86              		.loc 1 68 3 view .LVU26
  69:Src/tim.c     ****   if (HAL_TIM_Encoder_Init(&htim2, &sConfig) != HAL_OK)
  87              		.loc 1 69 3 view .LVU27
  88              		.loc 1 69 7 is_stmt 0 view .LVU28
  89 0032 03A9     		add	r1, sp, #12
  90 0034 FFF7FEFF 		bl	HAL_TIM_Encoder_Init
  91              	.LVL1:
  92              		.loc 1 69 6 view .LVU29
  93 0038 50B9     		cbnz	r0, .L5
  94              	.L2:
  70:Src/tim.c     ****   {
  71:Src/tim.c     ****     Error_Handler();
  72:Src/tim.c     ****   }
  73:Src/tim.c     ****   sMasterConfig.MasterOutputTrigger = TIM_TRGO_RESET;
  95              		.loc 1 73 3 is_stmt 1 view .LVU30
  96              		.loc 1 73 37 is_stmt 0 view .LVU31
  97 003a 0023     		movs	r3, #0
  98 003c 0193     		str	r3, [sp, #4]
  74:Src/tim.c     ****   sMasterConfig.MasterSlaveMode = TIM_MASTERSLAVEMODE_DISABLE;
ARM GAS  /tmp/cc20gsgr.s 			page 4


  99              		.loc 1 74 3 is_stmt 1 view .LVU32
 100              		.loc 1 74 33 is_stmt 0 view .LVU33
 101 003e 0293     		str	r3, [sp, #8]
  75:Src/tim.c     ****   if (HAL_TIMEx_MasterConfigSynchronization(&htim2, &sMasterConfig) != HAL_OK)
 102              		.loc 1 75 3 is_stmt 1 view .LVU34
 103              		.loc 1 75 7 is_stmt 0 view .LVU35
 104 0040 01A9     		add	r1, sp, #4
 105 0042 0648     		ldr	r0, .L7
 106 0044 FFF7FEFF 		bl	HAL_TIMEx_MasterConfigSynchronization
 107              	.LVL2:
 108              		.loc 1 75 6 view .LVU36
 109 0048 28B9     		cbnz	r0, .L6
 110              	.L1:
  76:Src/tim.c     ****   {
  77:Src/tim.c     ****     Error_Handler();
  78:Src/tim.c     ****   }
  79:Src/tim.c     **** 
  80:Src/tim.c     **** }
 111              		.loc 1 80 1 view .LVU37
 112 004a 0DB0     		add	sp, sp, #52
 113              	.LCFI2:
 114              		.cfi_remember_state
 115              		.cfi_def_cfa_offset 4
 116              		@ sp needed
 117 004c 5DF804FB 		ldr	pc, [sp], #4
 118              	.L5:
 119              	.LCFI3:
 120              		.cfi_restore_state
  71:Src/tim.c     ****   }
 121              		.loc 1 71 5 is_stmt 1 view .LVU38
 122 0050 FFF7FEFF 		bl	Error_Handler
 123              	.LVL3:
 124 0054 F1E7     		b	.L2
 125              	.L6:
  77:Src/tim.c     ****   }
 126              		.loc 1 77 5 view .LVU39
 127 0056 FFF7FEFF 		bl	Error_Handler
 128              	.LVL4:
 129              		.loc 1 80 1 is_stmt 0 view .LVU40
 130 005a F6E7     		b	.L1
 131              	.L8:
 132              		.align	2
 133              	.L7:
 134 005c 00000000 		.word	htim2
 135              		.cfi_endproc
 136              	.LFE126:
 138              		.section	.text.HAL_TIM_Encoder_MspInit,"ax",%progbits
 139              		.align	1
 140              		.global	HAL_TIM_Encoder_MspInit
 141              		.syntax unified
 142              		.thumb
 143              		.thumb_func
 144              		.fpu fpv4-sp-d16
 146              	HAL_TIM_Encoder_MspInit:
 147              	.LVL5:
 148              	.LFB127:
  81:Src/tim.c     **** 
ARM GAS  /tmp/cc20gsgr.s 			page 5


  82:Src/tim.c     **** void HAL_TIM_Encoder_MspInit(TIM_HandleTypeDef* tim_encoderHandle)
  83:Src/tim.c     **** {
 149              		.loc 1 83 1 is_stmt 1 view -0
 150              		.cfi_startproc
 151              		@ args = 0, pretend = 0, frame = 32
 152              		@ frame_needed = 0, uses_anonymous_args = 0
 153              		.loc 1 83 1 is_stmt 0 view .LVU42
 154 0000 70B5     		push	{r4, r5, r6, lr}
 155              	.LCFI4:
 156              		.cfi_def_cfa_offset 16
 157              		.cfi_offset 4, -16
 158              		.cfi_offset 5, -12
 159              		.cfi_offset 6, -8
 160              		.cfi_offset 14, -4
 161 0002 88B0     		sub	sp, sp, #32
 162              	.LCFI5:
 163              		.cfi_def_cfa_offset 48
  84:Src/tim.c     **** 
  85:Src/tim.c     ****   GPIO_InitTypeDef GPIO_InitStruct = {0};
 164              		.loc 1 85 3 is_stmt 1 view .LVU43
 165              		.loc 1 85 20 is_stmt 0 view .LVU44
 166 0004 0023     		movs	r3, #0
 167 0006 0393     		str	r3, [sp, #12]
 168 0008 0493     		str	r3, [sp, #16]
 169 000a 0593     		str	r3, [sp, #20]
 170 000c 0693     		str	r3, [sp, #24]
 171 000e 0793     		str	r3, [sp, #28]
  86:Src/tim.c     ****   if(tim_encoderHandle->Instance==TIM2)
 172              		.loc 1 86 3 is_stmt 1 view .LVU45
 173              		.loc 1 86 23 is_stmt 0 view .LVU46
 174 0010 0368     		ldr	r3, [r0]
 175              		.loc 1 86 5 view .LVU47
 176 0012 B3F1804F 		cmp	r3, #1073741824
 177 0016 01D0     		beq	.L12
 178              	.LVL6:
 179              	.L9:
  87:Src/tim.c     ****   {
  88:Src/tim.c     ****   /* USER CODE BEGIN TIM2_MspInit 0 */
  89:Src/tim.c     **** 
  90:Src/tim.c     ****   /* USER CODE END TIM2_MspInit 0 */
  91:Src/tim.c     ****     /* TIM2 clock enable */
  92:Src/tim.c     ****     __HAL_RCC_TIM2_CLK_ENABLE();
  93:Src/tim.c     ****   
  94:Src/tim.c     ****     __HAL_RCC_GPIOA_CLK_ENABLE();
  95:Src/tim.c     ****     __HAL_RCC_GPIOB_CLK_ENABLE();
  96:Src/tim.c     ****     /**TIM2 GPIO Configuration    
  97:Src/tim.c     ****     PA15     ------> TIM2_CH1
  98:Src/tim.c     ****     PB3     ------> TIM2_CH2 
  99:Src/tim.c     ****     */
 100:Src/tim.c     ****     GPIO_InitStruct.Pin = GPIO_PIN_15;
 101:Src/tim.c     ****     GPIO_InitStruct.Mode = GPIO_MODE_AF_PP;
 102:Src/tim.c     ****     GPIO_InitStruct.Pull = GPIO_PULLUP;
 103:Src/tim.c     ****     GPIO_InitStruct.Speed = GPIO_SPEED_FREQ_LOW;
 104:Src/tim.c     ****     GPIO_InitStruct.Alternate = GPIO_AF1_TIM2;
 105:Src/tim.c     ****     HAL_GPIO_Init(GPIOA, &GPIO_InitStruct);
 106:Src/tim.c     **** 
 107:Src/tim.c     ****     GPIO_InitStruct.Pin = GPIO_PIN_3;
ARM GAS  /tmp/cc20gsgr.s 			page 6


 108:Src/tim.c     ****     GPIO_InitStruct.Mode = GPIO_MODE_AF_PP;
 109:Src/tim.c     ****     GPIO_InitStruct.Pull = GPIO_PULLUP;
 110:Src/tim.c     ****     GPIO_InitStruct.Speed = GPIO_SPEED_FREQ_LOW;
 111:Src/tim.c     ****     GPIO_InitStruct.Alternate = GPIO_AF1_TIM2;
 112:Src/tim.c     ****     HAL_GPIO_Init(GPIOB, &GPIO_InitStruct);
 113:Src/tim.c     **** 
 114:Src/tim.c     ****   /* USER CODE BEGIN TIM2_MspInit 1 */
 115:Src/tim.c     **** 
 116:Src/tim.c     ****   /* USER CODE END TIM2_MspInit 1 */
 117:Src/tim.c     ****   }
 118:Src/tim.c     **** }
 180              		.loc 1 118 1 view .LVU48
 181 0018 08B0     		add	sp, sp, #32
 182              	.LCFI6:
 183              		.cfi_remember_state
 184              		.cfi_def_cfa_offset 16
 185              		@ sp needed
 186 001a 70BD     		pop	{r4, r5, r6, pc}
 187              	.LVL7:
 188              	.L12:
 189              	.LCFI7:
 190              		.cfi_restore_state
  92:Src/tim.c     ****   
 191              		.loc 1 92 5 is_stmt 1 view .LVU49
 192              	.LBB2:
  92:Src/tim.c     ****   
 193              		.loc 1 92 5 view .LVU50
 194 001c 0025     		movs	r5, #0
 195 001e 0095     		str	r5, [sp]
  92:Src/tim.c     ****   
 196              		.loc 1 92 5 view .LVU51
 197 0020 03F50E33 		add	r3, r3, #145408
 198 0024 1A6C     		ldr	r2, [r3, #64]
 199 0026 42F00102 		orr	r2, r2, #1
 200 002a 1A64     		str	r2, [r3, #64]
  92:Src/tim.c     ****   
 201              		.loc 1 92 5 view .LVU52
 202 002c 1A6C     		ldr	r2, [r3, #64]
 203 002e 02F00102 		and	r2, r2, #1
 204 0032 0092     		str	r2, [sp]
  92:Src/tim.c     ****   
 205              		.loc 1 92 5 view .LVU53
 206 0034 009A     		ldr	r2, [sp]
 207              	.LBE2:
  94:Src/tim.c     ****     __HAL_RCC_GPIOB_CLK_ENABLE();
 208              		.loc 1 94 5 view .LVU54
 209              	.LBB3:
  94:Src/tim.c     ****     __HAL_RCC_GPIOB_CLK_ENABLE();
 210              		.loc 1 94 5 view .LVU55
 211 0036 0195     		str	r5, [sp, #4]
  94:Src/tim.c     ****     __HAL_RCC_GPIOB_CLK_ENABLE();
 212              		.loc 1 94 5 view .LVU56
 213 0038 1A6B     		ldr	r2, [r3, #48]
 214 003a 42F00102 		orr	r2, r2, #1
 215 003e 1A63     		str	r2, [r3, #48]
  94:Src/tim.c     ****     __HAL_RCC_GPIOB_CLK_ENABLE();
 216              		.loc 1 94 5 view .LVU57
ARM GAS  /tmp/cc20gsgr.s 			page 7


 217 0040 1A6B     		ldr	r2, [r3, #48]
 218 0042 02F00102 		and	r2, r2, #1
 219 0046 0192     		str	r2, [sp, #4]
  94:Src/tim.c     ****     __HAL_RCC_GPIOB_CLK_ENABLE();
 220              		.loc 1 94 5 view .LVU58
 221 0048 019A     		ldr	r2, [sp, #4]
 222              	.LBE3:
  95:Src/tim.c     ****     /**TIM2 GPIO Configuration    
 223              		.loc 1 95 5 view .LVU59
 224              	.LBB4:
  95:Src/tim.c     ****     /**TIM2 GPIO Configuration    
 225              		.loc 1 95 5 view .LVU60
 226 004a 0295     		str	r5, [sp, #8]
  95:Src/tim.c     ****     /**TIM2 GPIO Configuration    
 227              		.loc 1 95 5 view .LVU61
 228 004c 1A6B     		ldr	r2, [r3, #48]
 229 004e 42F00202 		orr	r2, r2, #2
 230 0052 1A63     		str	r2, [r3, #48]
  95:Src/tim.c     ****     /**TIM2 GPIO Configuration    
 231              		.loc 1 95 5 view .LVU62
 232 0054 1B6B     		ldr	r3, [r3, #48]
 233 0056 03F00203 		and	r3, r3, #2
 234 005a 0293     		str	r3, [sp, #8]
  95:Src/tim.c     ****     /**TIM2 GPIO Configuration    
 235              		.loc 1 95 5 view .LVU63
 236 005c 029B     		ldr	r3, [sp, #8]
 237              	.LBE4:
 100:Src/tim.c     ****     GPIO_InitStruct.Mode = GPIO_MODE_AF_PP;
 238              		.loc 1 100 5 view .LVU64
 100:Src/tim.c     ****     GPIO_InitStruct.Mode = GPIO_MODE_AF_PP;
 239              		.loc 1 100 25 is_stmt 0 view .LVU65
 240 005e 4FF40043 		mov	r3, #32768
 241 0062 0393     		str	r3, [sp, #12]
 101:Src/tim.c     ****     GPIO_InitStruct.Pull = GPIO_PULLUP;
 242              		.loc 1 101 5 is_stmt 1 view .LVU66
 101:Src/tim.c     ****     GPIO_InitStruct.Pull = GPIO_PULLUP;
 243              		.loc 1 101 26 is_stmt 0 view .LVU67
 244 0064 0226     		movs	r6, #2
 245 0066 0496     		str	r6, [sp, #16]
 102:Src/tim.c     ****     GPIO_InitStruct.Speed = GPIO_SPEED_FREQ_LOW;
 246              		.loc 1 102 5 is_stmt 1 view .LVU68
 102:Src/tim.c     ****     GPIO_InitStruct.Speed = GPIO_SPEED_FREQ_LOW;
 247              		.loc 1 102 26 is_stmt 0 view .LVU69
 248 0068 0124     		movs	r4, #1
 249 006a 0594     		str	r4, [sp, #20]
 103:Src/tim.c     ****     GPIO_InitStruct.Alternate = GPIO_AF1_TIM2;
 250              		.loc 1 103 5 is_stmt 1 view .LVU70
 104:Src/tim.c     ****     HAL_GPIO_Init(GPIOA, &GPIO_InitStruct);
 251              		.loc 1 104 5 view .LVU71
 104:Src/tim.c     ****     HAL_GPIO_Init(GPIOA, &GPIO_InitStruct);
 252              		.loc 1 104 31 is_stmt 0 view .LVU72
 253 006c 0794     		str	r4, [sp, #28]
 105:Src/tim.c     **** 
 254              		.loc 1 105 5 is_stmt 1 view .LVU73
 255 006e 03A9     		add	r1, sp, #12
 256 0070 0648     		ldr	r0, .L13
 257              	.LVL8:
ARM GAS  /tmp/cc20gsgr.s 			page 8


 105:Src/tim.c     **** 
 258              		.loc 1 105 5 is_stmt 0 view .LVU74
 259 0072 FFF7FEFF 		bl	HAL_GPIO_Init
 260              	.LVL9:
 107:Src/tim.c     ****     GPIO_InitStruct.Mode = GPIO_MODE_AF_PP;
 261              		.loc 1 107 5 is_stmt 1 view .LVU75
 107:Src/tim.c     ****     GPIO_InitStruct.Mode = GPIO_MODE_AF_PP;
 262              		.loc 1 107 25 is_stmt 0 view .LVU76
 263 0076 0823     		movs	r3, #8
 264 0078 0393     		str	r3, [sp, #12]
 108:Src/tim.c     ****     GPIO_InitStruct.Pull = GPIO_PULLUP;
 265              		.loc 1 108 5 is_stmt 1 view .LVU77
 108:Src/tim.c     ****     GPIO_InitStruct.Pull = GPIO_PULLUP;
 266              		.loc 1 108 26 is_stmt 0 view .LVU78
 267 007a 0496     		str	r6, [sp, #16]
 109:Src/tim.c     ****     GPIO_InitStruct.Speed = GPIO_SPEED_FREQ_LOW;
 268              		.loc 1 109 5 is_stmt 1 view .LVU79
 109:Src/tim.c     ****     GPIO_InitStruct.Speed = GPIO_SPEED_FREQ_LOW;
 269              		.loc 1 109 26 is_stmt 0 view .LVU80
 270 007c 0594     		str	r4, [sp, #20]
 110:Src/tim.c     ****     GPIO_InitStruct.Alternate = GPIO_AF1_TIM2;
 271              		.loc 1 110 5 is_stmt 1 view .LVU81
 110:Src/tim.c     ****     GPIO_InitStruct.Alternate = GPIO_AF1_TIM2;
 272              		.loc 1 110 27 is_stmt 0 view .LVU82
 273 007e 0695     		str	r5, [sp, #24]
 111:Src/tim.c     ****     HAL_GPIO_Init(GPIOB, &GPIO_InitStruct);
 274              		.loc 1 111 5 is_stmt 1 view .LVU83
 111:Src/tim.c     ****     HAL_GPIO_Init(GPIOB, &GPIO_InitStruct);
 275              		.loc 1 111 31 is_stmt 0 view .LVU84
 276 0080 0794     		str	r4, [sp, #28]
 112:Src/tim.c     **** 
 277              		.loc 1 112 5 is_stmt 1 view .LVU85
 278 0082 03A9     		add	r1, sp, #12
 279 0084 0248     		ldr	r0, .L13+4
 280 0086 FFF7FEFF 		bl	HAL_GPIO_Init
 281              	.LVL10:
 282              		.loc 1 118 1 is_stmt 0 view .LVU86
 283 008a C5E7     		b	.L9
 284              	.L14:
 285              		.align	2
 286              	.L13:
 287 008c 00000240 		.word	1073872896
 288 0090 00040240 		.word	1073873920
 289              		.cfi_endproc
 290              	.LFE127:
 292              		.section	.text.HAL_TIM_Encoder_MspDeInit,"ax",%progbits
 293              		.align	1
 294              		.global	HAL_TIM_Encoder_MspDeInit
 295              		.syntax unified
 296              		.thumb
 297              		.thumb_func
 298              		.fpu fpv4-sp-d16
 300              	HAL_TIM_Encoder_MspDeInit:
 301              	.LVL11:
 302              	.LFB128:
 119:Src/tim.c     **** 
 120:Src/tim.c     **** void HAL_TIM_Encoder_MspDeInit(TIM_HandleTypeDef* tim_encoderHandle)
ARM GAS  /tmp/cc20gsgr.s 			page 9


 121:Src/tim.c     **** {
 303              		.loc 1 121 1 is_stmt 1 view -0
 304              		.cfi_startproc
 305              		@ args = 0, pretend = 0, frame = 0
 306              		@ frame_needed = 0, uses_anonymous_args = 0
 307              		.loc 1 121 1 is_stmt 0 view .LVU88
 308 0000 08B5     		push	{r3, lr}
 309              	.LCFI8:
 310              		.cfi_def_cfa_offset 8
 311              		.cfi_offset 3, -8
 312              		.cfi_offset 14, -4
 122:Src/tim.c     **** 
 123:Src/tim.c     ****   if(tim_encoderHandle->Instance==TIM2)
 313              		.loc 1 123 3 is_stmt 1 view .LVU89
 314              		.loc 1 123 23 is_stmt 0 view .LVU90
 315 0002 0368     		ldr	r3, [r0]
 316              		.loc 1 123 5 view .LVU91
 317 0004 B3F1804F 		cmp	r3, #1073741824
 318 0008 00D0     		beq	.L18
 319              	.LVL12:
 320              	.L15:
 124:Src/tim.c     ****   {
 125:Src/tim.c     ****   /* USER CODE BEGIN TIM2_MspDeInit 0 */
 126:Src/tim.c     **** 
 127:Src/tim.c     ****   /* USER CODE END TIM2_MspDeInit 0 */
 128:Src/tim.c     ****     /* Peripheral clock disable */
 129:Src/tim.c     ****     __HAL_RCC_TIM2_CLK_DISABLE();
 130:Src/tim.c     ****   
 131:Src/tim.c     ****     /**TIM2 GPIO Configuration    
 132:Src/tim.c     ****     PA15     ------> TIM2_CH1
 133:Src/tim.c     ****     PB3     ------> TIM2_CH2 
 134:Src/tim.c     ****     */
 135:Src/tim.c     ****     HAL_GPIO_DeInit(GPIOA, GPIO_PIN_15);
 136:Src/tim.c     **** 
 137:Src/tim.c     ****     HAL_GPIO_DeInit(GPIOB, GPIO_PIN_3);
 138:Src/tim.c     **** 
 139:Src/tim.c     ****   /* USER CODE BEGIN TIM2_MspDeInit 1 */
 140:Src/tim.c     **** 
 141:Src/tim.c     ****   /* USER CODE END TIM2_MspDeInit 1 */
 142:Src/tim.c     ****   }
 143:Src/tim.c     **** } 
 321              		.loc 1 143 1 view .LVU92
 322 000a 08BD     		pop	{r3, pc}
 323              	.LVL13:
 324              	.L18:
 129:Src/tim.c     ****   
 325              		.loc 1 129 5 is_stmt 1 view .LVU93
 326 000c 074A     		ldr	r2, .L19
 327 000e 136C     		ldr	r3, [r2, #64]
 328 0010 23F00103 		bic	r3, r3, #1
 329 0014 1364     		str	r3, [r2, #64]
 135:Src/tim.c     **** 
 330              		.loc 1 135 5 view .LVU94
 331 0016 4FF40041 		mov	r1, #32768
 332 001a 0548     		ldr	r0, .L19+4
 333              	.LVL14:
 135:Src/tim.c     **** 
ARM GAS  /tmp/cc20gsgr.s 			page 10


 334              		.loc 1 135 5 is_stmt 0 view .LVU95
 335 001c FFF7FEFF 		bl	HAL_GPIO_DeInit
 336              	.LVL15:
 137:Src/tim.c     **** 
 337              		.loc 1 137 5 is_stmt 1 view .LVU96
 338 0020 0821     		movs	r1, #8
 339 0022 0448     		ldr	r0, .L19+8
 340 0024 FFF7FEFF 		bl	HAL_GPIO_DeInit
 341              	.LVL16:
 342              		.loc 1 143 1 is_stmt 0 view .LVU97
 343 0028 EFE7     		b	.L15
 344              	.L20:
 345 002a 00BF     		.align	2
 346              	.L19:
 347 002c 00380240 		.word	1073887232
 348 0030 00000240 		.word	1073872896
 349 0034 00040240 		.word	1073873920
 350              		.cfi_endproc
 351              	.LFE128:
 353              		.comm	htim2,60,4
 354              		.text
 355              	.Letext0:
 356              		.file 2 "/usr/arm-none-eabi/include/machine/_default_types.h"
 357              		.file 3 "/usr/arm-none-eabi/include/sys/_stdint.h"
 358              		.file 4 "Drivers/CMSIS/Include/core_cm4.h"
 359              		.file 5 "Drivers/CMSIS/Device/ST/STM32F4xx/Include/system_stm32f4xx.h"
 360              		.file 6 "Drivers/CMSIS/Device/ST/STM32F4xx/Include/stm32f401xe.h"
 361              		.file 7 "/usr/arm-none-eabi/include/sys/lock.h"
 362              		.file 8 "/usr/arm-none-eabi/include/sys/_types.h"
 363              		.file 9 "/usr/lib/gcc/arm-none-eabi/8.3.0/include/stddef.h"
 364              		.file 10 "/usr/arm-none-eabi/include/sys/reent.h"
 365              		.file 11 "Drivers/STM32F4xx_HAL_Driver/Inc/stm32f4xx_hal_def.h"
 366              		.file 12 "Drivers/STM32F4xx_HAL_Driver/Inc/stm32f4xx_hal_gpio.h"
 367              		.file 13 "Drivers/STM32F4xx_HAL_Driver/Inc/stm32f4xx_hal_dma.h"
 368              		.file 14 "Drivers/STM32F4xx_HAL_Driver/Inc/stm32f4xx_hal_tim.h"
 369              		.file 15 "Drivers/STM32F4xx_HAL_Driver/Inc/stm32f4xx_hal_tim_ex.h"
 370              		.file 16 "Inc/tim.h"
 371              		.file 17 "Inc/main.h"
 372              		.file 18 "<built-in>"
ARM GAS  /tmp/cc20gsgr.s 			page 11

