ARM GAS  /tmp/ccRzne9W.s 			page 1


   1              		.cpu cortex-m4
   2              		.eabi_attribute 27, 1
   3              		.eabi_attribute 28, 1
   4              		.eabi_attribute 20, 1
   5              		.eabi_attribute 21, 1
   6              		.eabi_attribute 23, 3
   7              		.eabi_attribute 24, 1
   8              		.eabi_attribute 25, 1
   9              		.eabi_attribute 26, 1
  10              		.eabi_attribute 30, 1
  11              		.eabi_attribute 34, 1
  12              		.eabi_attribute 18, 4
  13              		.file	"usart.c"
  14              		.text
  15              	.Ltext0:
  16              		.cfi_sections	.debug_frame
  17              		.section	.text.MX_USART2_Init,"ax",%progbits
  18              		.align	1
  19              		.global	MX_USART2_Init
  20              		.arch armv7e-m
  21              		.syntax unified
  22              		.thumb
  23              		.thumb_func
  24              		.fpu fpv4-sp-d16
  26              	MX_USART2_Init:
  27              	.LFB126:
  28              		.file 1 "Src/usart.c"
   1:Src/usart.c   **** /**
   2:Src/usart.c   ****   ******************************************************************************
   3:Src/usart.c   ****   * File Name          : USART.c
   4:Src/usart.c   ****   * Description        : This file provides code for the configuration
   5:Src/usart.c   ****   *                      of the USART instances.
   6:Src/usart.c   ****   ******************************************************************************
   7:Src/usart.c   ****   ** This notice applies to any and all portions of this file
   8:Src/usart.c   ****   * that are not between comment pairs USER CODE BEGIN and
   9:Src/usart.c   ****   * USER CODE END. Other portions of this file, whether 
  10:Src/usart.c   ****   * inserted by the user or by software development tools
  11:Src/usart.c   ****   * are owned by their respective copyright owners.
  12:Src/usart.c   ****   *
  13:Src/usart.c   ****   * COPYRIGHT(c) 2019 STMicroelectronics
  14:Src/usart.c   ****   *
  15:Src/usart.c   ****   * Redistribution and use in source and binary forms, with or without modification,
  16:Src/usart.c   ****   * are permitted provided that the following conditions are met:
  17:Src/usart.c   ****   *   1. Redistributions of source code must retain the above copyright notice,
  18:Src/usart.c   ****   *      this list of conditions and the following disclaimer.
  19:Src/usart.c   ****   *   2. Redistributions in binary form must reproduce the above copyright notice,
  20:Src/usart.c   ****   *      this list of conditions and the following disclaimer in the documentation
  21:Src/usart.c   ****   *      and/or other materials provided with the distribution.
  22:Src/usart.c   ****   *   3. Neither the name of STMicroelectronics nor the names of its contributors
  23:Src/usart.c   ****   *      may be used to endorse or promote products derived from this software
  24:Src/usart.c   ****   *      without specific prior written permission.
  25:Src/usart.c   ****   *
  26:Src/usart.c   ****   * THIS SOFTWARE IS PROVIDED BY THE COPYRIGHT HOLDERS AND CONTRIBUTORS "AS IS"
  27:Src/usart.c   ****   * AND ANY EXPRESS OR IMPLIED WARRANTIES, INCLUDING, BUT NOT LIMITED TO, THE
  28:Src/usart.c   ****   * IMPLIED WARRANTIES OF MERCHANTABILITY AND FITNESS FOR A PARTICULAR PURPOSE ARE
  29:Src/usart.c   ****   * DISCLAIMED. IN NO EVENT SHALL THE COPYRIGHT HOLDER OR CONTRIBUTORS BE LIABLE
  30:Src/usart.c   ****   * FOR ANY DIRECT, INDIRECT, INCIDENTAL, SPECIAL, EXEMPLARY, OR CONSEQUENTIAL
ARM GAS  /tmp/ccRzne9W.s 			page 2


  31:Src/usart.c   ****   * DAMAGES (INCLUDING, BUT NOT LIMITED TO, PROCUREMENT OF SUBSTITUTE GOODS OR
  32:Src/usart.c   ****   * SERVICES; LOSS OF USE, DATA, OR PROFITS; OR BUSINESS INTERRUPTION) HOWEVER
  33:Src/usart.c   ****   * CAUSED AND ON ANY THEORY OF LIABILITY, WHETHER IN CONTRACT, STRICT LIABILITY,
  34:Src/usart.c   ****   * OR TORT (INCLUDING NEGLIGENCE OR OTHERWISE) ARISING IN ANY WAY OUT OF THE USE
  35:Src/usart.c   ****   * OF THIS SOFTWARE, EVEN IF ADVISED OF THE POSSIBILITY OF SUCH DAMAGE.
  36:Src/usart.c   ****   *
  37:Src/usart.c   ****   ******************************************************************************
  38:Src/usart.c   ****   */
  39:Src/usart.c   **** 
  40:Src/usart.c   **** /* Includes ------------------------------------------------------------------*/
  41:Src/usart.c   **** #include "usart.h"
  42:Src/usart.c   **** 
  43:Src/usart.c   **** /* USER CODE BEGIN 0 */
  44:Src/usart.c   **** 
  45:Src/usart.c   **** /* USER CODE END 0 */
  46:Src/usart.c   **** 
  47:Src/usart.c   **** USART_HandleTypeDef husart2;
  48:Src/usart.c   **** USART_HandleTypeDef husart6;
  49:Src/usart.c   **** 
  50:Src/usart.c   **** /* USART2 init function */
  51:Src/usart.c   **** void MX_USART2_Init(void)
  52:Src/usart.c   **** {
  29              		.loc 1 52 1 view -0
  30              		.cfi_startproc
  31              		@ args = 0, pretend = 0, frame = 0
  32              		@ frame_needed = 0, uses_anonymous_args = 0
  33 0000 08B5     		push	{r3, lr}
  34              	.LCFI0:
  35              		.cfi_def_cfa_offset 8
  36              		.cfi_offset 3, -8
  37              		.cfi_offset 14, -4
  53:Src/usart.c   **** 
  54:Src/usart.c   ****   husart2.Instance = USART2;
  38              		.loc 1 54 3 view .LVU1
  39              		.loc 1 54 20 is_stmt 0 view .LVU2
  40 0002 0B48     		ldr	r0, .L5
  41 0004 0B4B     		ldr	r3, .L5+4
  42 0006 0360     		str	r3, [r0]
  55:Src/usart.c   ****   husart2.Init.BaudRate = 115200;
  43              		.loc 1 55 3 is_stmt 1 view .LVU3
  44              		.loc 1 55 25 is_stmt 0 view .LVU4
  45 0008 4FF4E133 		mov	r3, #115200
  46 000c 4360     		str	r3, [r0, #4]
  56:Src/usart.c   ****   husart2.Init.WordLength = USART_WORDLENGTH_8B;
  47              		.loc 1 56 3 is_stmt 1 view .LVU5
  48              		.loc 1 56 27 is_stmt 0 view .LVU6
  49 000e 0023     		movs	r3, #0
  50 0010 8360     		str	r3, [r0, #8]
  57:Src/usart.c   ****   husart2.Init.StopBits = USART_STOPBITS_1;
  51              		.loc 1 57 3 is_stmt 1 view .LVU7
  52              		.loc 1 57 25 is_stmt 0 view .LVU8
  53 0012 C360     		str	r3, [r0, #12]
  58:Src/usart.c   ****   husart2.Init.Parity = USART_PARITY_NONE;
  54              		.loc 1 58 3 is_stmt 1 view .LVU9
  55              		.loc 1 58 23 is_stmt 0 view .LVU10
  56 0014 0361     		str	r3, [r0, #16]
  59:Src/usart.c   ****   husart2.Init.Mode = USART_MODE_TX_RX;
ARM GAS  /tmp/ccRzne9W.s 			page 3


  57              		.loc 1 59 3 is_stmt 1 view .LVU11
  58              		.loc 1 59 21 is_stmt 0 view .LVU12
  59 0016 0C22     		movs	r2, #12
  60 0018 4261     		str	r2, [r0, #20]
  60:Src/usart.c   ****   husart2.Init.CLKPolarity = USART_POLARITY_LOW;
  61              		.loc 1 60 3 is_stmt 1 view .LVU13
  62              		.loc 1 60 28 is_stmt 0 view .LVU14
  63 001a 8361     		str	r3, [r0, #24]
  61:Src/usart.c   ****   husart2.Init.CLKPhase = USART_PHASE_1EDGE;
  64              		.loc 1 61 3 is_stmt 1 view .LVU15
  65              		.loc 1 61 25 is_stmt 0 view .LVU16
  66 001c C361     		str	r3, [r0, #28]
  62:Src/usart.c   ****   husart2.Init.CLKLastBit = USART_LASTBIT_DISABLE;
  67              		.loc 1 62 3 is_stmt 1 view .LVU17
  68              		.loc 1 62 27 is_stmt 0 view .LVU18
  69 001e 0362     		str	r3, [r0, #32]
  63:Src/usart.c   ****   if (HAL_USART_Init(&husart2) != HAL_OK)
  70              		.loc 1 63 3 is_stmt 1 view .LVU19
  71              		.loc 1 63 7 is_stmt 0 view .LVU20
  72 0020 FFF7FEFF 		bl	HAL_USART_Init
  73              	.LVL0:
  74              		.loc 1 63 6 view .LVU21
  75 0024 00B9     		cbnz	r0, .L4
  76              	.L1:
  64:Src/usart.c   ****   {
  65:Src/usart.c   ****     Error_Handler();
  66:Src/usart.c   ****   }
  67:Src/usart.c   **** 
  68:Src/usart.c   **** }
  77              		.loc 1 68 1 view .LVU22
  78 0026 08BD     		pop	{r3, pc}
  79              	.L4:
  65:Src/usart.c   ****   }
  80              		.loc 1 65 5 is_stmt 1 view .LVU23
  81 0028 FFF7FEFF 		bl	Error_Handler
  82              	.LVL1:
  83              		.loc 1 68 1 is_stmt 0 view .LVU24
  84 002c FBE7     		b	.L1
  85              	.L6:
  86 002e 00BF     		.align	2
  87              	.L5:
  88 0030 00000000 		.word	husart2
  89 0034 00440040 		.word	1073759232
  90              		.cfi_endproc
  91              	.LFE126:
  93              		.section	.text.MX_USART6_Init,"ax",%progbits
  94              		.align	1
  95              		.global	MX_USART6_Init
  96              		.syntax unified
  97              		.thumb
  98              		.thumb_func
  99              		.fpu fpv4-sp-d16
 101              	MX_USART6_Init:
 102              	.LFB127:
  69:Src/usart.c   **** /* USART6 init function */
  70:Src/usart.c   **** void MX_USART6_Init(void)
  71:Src/usart.c   **** {
ARM GAS  /tmp/ccRzne9W.s 			page 4


 103              		.loc 1 71 1 is_stmt 1 view -0
 104              		.cfi_startproc
 105              		@ args = 0, pretend = 0, frame = 0
 106              		@ frame_needed = 0, uses_anonymous_args = 0
 107 0000 08B5     		push	{r3, lr}
 108              	.LCFI1:
 109              		.cfi_def_cfa_offset 8
 110              		.cfi_offset 3, -8
 111              		.cfi_offset 14, -4
  72:Src/usart.c   **** 
  73:Src/usart.c   ****   husart6.Instance = USART6;
 112              		.loc 1 73 3 view .LVU26
 113              		.loc 1 73 20 is_stmt 0 view .LVU27
 114 0002 0B48     		ldr	r0, .L11
 115 0004 0B4B     		ldr	r3, .L11+4
 116 0006 0360     		str	r3, [r0]
  74:Src/usart.c   ****   husart6.Init.BaudRate = 115200;
 117              		.loc 1 74 3 is_stmt 1 view .LVU28
 118              		.loc 1 74 25 is_stmt 0 view .LVU29
 119 0008 4FF4E133 		mov	r3, #115200
 120 000c 4360     		str	r3, [r0, #4]
  75:Src/usart.c   ****   husart6.Init.WordLength = USART_WORDLENGTH_8B;
 121              		.loc 1 75 3 is_stmt 1 view .LVU30
 122              		.loc 1 75 27 is_stmt 0 view .LVU31
 123 000e 0023     		movs	r3, #0
 124 0010 8360     		str	r3, [r0, #8]
  76:Src/usart.c   ****   husart6.Init.StopBits = USART_STOPBITS_1;
 125              		.loc 1 76 3 is_stmt 1 view .LVU32
 126              		.loc 1 76 25 is_stmt 0 view .LVU33
 127 0012 C360     		str	r3, [r0, #12]
  77:Src/usart.c   ****   husart6.Init.Parity = USART_PARITY_NONE;
 128              		.loc 1 77 3 is_stmt 1 view .LVU34
 129              		.loc 1 77 23 is_stmt 0 view .LVU35
 130 0014 0361     		str	r3, [r0, #16]
  78:Src/usart.c   ****   husart6.Init.Mode = USART_MODE_TX_RX;
 131              		.loc 1 78 3 is_stmt 1 view .LVU36
 132              		.loc 1 78 21 is_stmt 0 view .LVU37
 133 0016 0C22     		movs	r2, #12
 134 0018 4261     		str	r2, [r0, #20]
  79:Src/usart.c   ****   husart6.Init.CLKPolarity = USART_POLARITY_LOW;
 135              		.loc 1 79 3 is_stmt 1 view .LVU38
 136              		.loc 1 79 28 is_stmt 0 view .LVU39
 137 001a 8361     		str	r3, [r0, #24]
  80:Src/usart.c   ****   husart6.Init.CLKPhase = USART_PHASE_1EDGE;
 138              		.loc 1 80 3 is_stmt 1 view .LVU40
 139              		.loc 1 80 25 is_stmt 0 view .LVU41
 140 001c C361     		str	r3, [r0, #28]
  81:Src/usart.c   ****   husart6.Init.CLKLastBit = USART_LASTBIT_DISABLE;
 141              		.loc 1 81 3 is_stmt 1 view .LVU42
 142              		.loc 1 81 27 is_stmt 0 view .LVU43
 143 001e 0362     		str	r3, [r0, #32]
  82:Src/usart.c   ****   if (HAL_USART_Init(&husart6) != HAL_OK)
 144              		.loc 1 82 3 is_stmt 1 view .LVU44
 145              		.loc 1 82 7 is_stmt 0 view .LVU45
 146 0020 FFF7FEFF 		bl	HAL_USART_Init
 147              	.LVL2:
 148              		.loc 1 82 6 view .LVU46
ARM GAS  /tmp/ccRzne9W.s 			page 5


 149 0024 00B9     		cbnz	r0, .L10
 150              	.L7:
  83:Src/usart.c   ****   {
  84:Src/usart.c   ****     Error_Handler();
  85:Src/usart.c   ****   }
  86:Src/usart.c   **** 
  87:Src/usart.c   **** }
 151              		.loc 1 87 1 view .LVU47
 152 0026 08BD     		pop	{r3, pc}
 153              	.L10:
  84:Src/usart.c   ****   }
 154              		.loc 1 84 5 is_stmt 1 view .LVU48
 155 0028 FFF7FEFF 		bl	Error_Handler
 156              	.LVL3:
 157              		.loc 1 87 1 is_stmt 0 view .LVU49
 158 002c FBE7     		b	.L7
 159              	.L12:
 160 002e 00BF     		.align	2
 161              	.L11:
 162 0030 00000000 		.word	husart6
 163 0034 00140140 		.word	1073812480
 164              		.cfi_endproc
 165              	.LFE127:
 167              		.section	.text.HAL_USART_MspInit,"ax",%progbits
 168              		.align	1
 169              		.global	HAL_USART_MspInit
 170              		.syntax unified
 171              		.thumb
 172              		.thumb_func
 173              		.fpu fpv4-sp-d16
 175              	HAL_USART_MspInit:
 176              	.LVL4:
 177              	.LFB128:
  88:Src/usart.c   **** 
  89:Src/usart.c   **** void HAL_USART_MspInit(USART_HandleTypeDef* usartHandle)
  90:Src/usart.c   **** {
 178              		.loc 1 90 1 is_stmt 1 view -0
 179              		.cfi_startproc
 180              		@ args = 0, pretend = 0, frame = 40
 181              		@ frame_needed = 0, uses_anonymous_args = 0
 182              		.loc 1 90 1 is_stmt 0 view .LVU51
 183 0000 00B5     		push	{lr}
 184              	.LCFI2:
 185              		.cfi_def_cfa_offset 4
 186              		.cfi_offset 14, -4
 187 0002 8BB0     		sub	sp, sp, #44
 188              	.LCFI3:
 189              		.cfi_def_cfa_offset 48
  91:Src/usart.c   **** 
  92:Src/usart.c   ****   GPIO_InitTypeDef GPIO_InitStruct = {0};
 190              		.loc 1 92 3 is_stmt 1 view .LVU52
 191              		.loc 1 92 20 is_stmt 0 view .LVU53
 192 0004 0023     		movs	r3, #0
 193 0006 0593     		str	r3, [sp, #20]
 194 0008 0693     		str	r3, [sp, #24]
 195 000a 0793     		str	r3, [sp, #28]
 196 000c 0893     		str	r3, [sp, #32]
ARM GAS  /tmp/ccRzne9W.s 			page 6


 197 000e 0993     		str	r3, [sp, #36]
  93:Src/usart.c   ****   if(usartHandle->Instance==USART2)
 198              		.loc 1 93 3 is_stmt 1 view .LVU54
 199              		.loc 1 93 17 is_stmt 0 view .LVU55
 200 0010 0368     		ldr	r3, [r0]
 201              		.loc 1 93 5 view .LVU56
 202 0012 284A     		ldr	r2, .L19
 203 0014 9342     		cmp	r3, r2
 204 0016 05D0     		beq	.L17
  94:Src/usart.c   ****   {
  95:Src/usart.c   ****   /* USER CODE BEGIN USART2_MspInit 0 */
  96:Src/usart.c   **** 
  97:Src/usart.c   ****   /* USER CODE END USART2_MspInit 0 */
  98:Src/usart.c   ****     /* USART2 clock enable */
  99:Src/usart.c   ****     __HAL_RCC_USART2_CLK_ENABLE();
 100:Src/usart.c   ****   
 101:Src/usart.c   ****     __HAL_RCC_GPIOA_CLK_ENABLE();
 102:Src/usart.c   ****     /**USART2 GPIO Configuration    
 103:Src/usart.c   ****     PA2     ------> USART2_TX
 104:Src/usart.c   ****     PA3     ------> USART2_RX
 105:Src/usart.c   ****     PA4     ------> USART2_CK 
 106:Src/usart.c   ****     */
 107:Src/usart.c   ****     GPIO_InitStruct.Pin = GPIO_PIN_2|GPIO_PIN_3|GPIO_PIN_4;
 108:Src/usart.c   ****     GPIO_InitStruct.Mode = GPIO_MODE_AF_PP;
 109:Src/usart.c   ****     GPIO_InitStruct.Pull = GPIO_NOPULL;
 110:Src/usart.c   ****     GPIO_InitStruct.Speed = GPIO_SPEED_FREQ_VERY_HIGH;
 111:Src/usart.c   ****     GPIO_InitStruct.Alternate = GPIO_AF7_USART2;
 112:Src/usart.c   ****     HAL_GPIO_Init(GPIOA, &GPIO_InitStruct);
 113:Src/usart.c   **** 
 114:Src/usart.c   ****   /* USER CODE BEGIN USART2_MspInit 1 */
 115:Src/usart.c   **** 
 116:Src/usart.c   ****   /* USER CODE END USART2_MspInit 1 */
 117:Src/usart.c   ****   }
 118:Src/usart.c   ****   else if(usartHandle->Instance==USART6)
 205              		.loc 1 118 8 is_stmt 1 view .LVU57
 206              		.loc 1 118 10 is_stmt 0 view .LVU58
 207 0018 274A     		ldr	r2, .L19+4
 208 001a 9342     		cmp	r3, r2
 209 001c 25D0     		beq	.L18
 210              	.LVL5:
 211              	.L13:
 119:Src/usart.c   ****   {
 120:Src/usart.c   ****   /* USER CODE BEGIN USART6_MspInit 0 */
 121:Src/usart.c   **** 
 122:Src/usart.c   ****   /* USER CODE END USART6_MspInit 0 */
 123:Src/usart.c   ****     /* USART6 clock enable */
 124:Src/usart.c   ****     __HAL_RCC_USART6_CLK_ENABLE();
 125:Src/usart.c   ****   
 126:Src/usart.c   ****     __HAL_RCC_GPIOC_CLK_ENABLE();
 127:Src/usart.c   ****     /**USART6 GPIO Configuration    
 128:Src/usart.c   ****     PC6     ------> USART6_TX
 129:Src/usart.c   ****     PC7     ------> USART6_RX
 130:Src/usart.c   ****     PC8     ------> USART6_CK 
 131:Src/usart.c   ****     */
 132:Src/usart.c   ****     GPIO_InitStruct.Pin = GPIO_PIN_6|GPIO_PIN_7|GPIO_PIN_8;
 133:Src/usart.c   ****     GPIO_InitStruct.Mode = GPIO_MODE_AF_PP;
 134:Src/usart.c   ****     GPIO_InitStruct.Pull = GPIO_NOPULL;
ARM GAS  /tmp/ccRzne9W.s 			page 7


 135:Src/usart.c   ****     GPIO_InitStruct.Speed = GPIO_SPEED_FREQ_VERY_HIGH;
 136:Src/usart.c   ****     GPIO_InitStruct.Alternate = GPIO_AF8_USART6;
 137:Src/usart.c   ****     HAL_GPIO_Init(GPIOC, &GPIO_InitStruct);
 138:Src/usart.c   **** 
 139:Src/usart.c   ****   /* USER CODE BEGIN USART6_MspInit 1 */
 140:Src/usart.c   **** 
 141:Src/usart.c   ****   /* USER CODE END USART6_MspInit 1 */
 142:Src/usart.c   ****   }
 143:Src/usart.c   **** }
 212              		.loc 1 143 1 view .LVU59
 213 001e 0BB0     		add	sp, sp, #44
 214              	.LCFI4:
 215              		.cfi_remember_state
 216              		.cfi_def_cfa_offset 4
 217              		@ sp needed
 218 0020 5DF804FB 		ldr	pc, [sp], #4
 219              	.LVL6:
 220              	.L17:
 221              	.LCFI5:
 222              		.cfi_restore_state
  99:Src/usart.c   ****   
 223              		.loc 1 99 5 is_stmt 1 view .LVU60
 224              	.LBB2:
  99:Src/usart.c   ****   
 225              		.loc 1 99 5 view .LVU61
 226 0024 0021     		movs	r1, #0
 227 0026 0191     		str	r1, [sp, #4]
  99:Src/usart.c   ****   
 228              		.loc 1 99 5 view .LVU62
 229 0028 244B     		ldr	r3, .L19+8
 230 002a 1A6C     		ldr	r2, [r3, #64]
 231 002c 42F40032 		orr	r2, r2, #131072
 232 0030 1A64     		str	r2, [r3, #64]
  99:Src/usart.c   ****   
 233              		.loc 1 99 5 view .LVU63
 234 0032 1A6C     		ldr	r2, [r3, #64]
 235 0034 02F40032 		and	r2, r2, #131072
 236 0038 0192     		str	r2, [sp, #4]
  99:Src/usart.c   ****   
 237              		.loc 1 99 5 view .LVU64
 238 003a 019A     		ldr	r2, [sp, #4]
 239              	.LBE2:
 101:Src/usart.c   ****     /**USART2 GPIO Configuration    
 240              		.loc 1 101 5 view .LVU65
 241              	.LBB3:
 101:Src/usart.c   ****     /**USART2 GPIO Configuration    
 242              		.loc 1 101 5 view .LVU66
 243 003c 0291     		str	r1, [sp, #8]
 101:Src/usart.c   ****     /**USART2 GPIO Configuration    
 244              		.loc 1 101 5 view .LVU67
 245 003e 1A6B     		ldr	r2, [r3, #48]
 246 0040 42F00102 		orr	r2, r2, #1
 247 0044 1A63     		str	r2, [r3, #48]
 101:Src/usart.c   ****     /**USART2 GPIO Configuration    
 248              		.loc 1 101 5 view .LVU68
 249 0046 1B6B     		ldr	r3, [r3, #48]
 250 0048 03F00103 		and	r3, r3, #1
ARM GAS  /tmp/ccRzne9W.s 			page 8


 251 004c 0293     		str	r3, [sp, #8]
 101:Src/usart.c   ****     /**USART2 GPIO Configuration    
 252              		.loc 1 101 5 view .LVU69
 253 004e 029B     		ldr	r3, [sp, #8]
 254              	.LBE3:
 107:Src/usart.c   ****     GPIO_InitStruct.Mode = GPIO_MODE_AF_PP;
 255              		.loc 1 107 5 view .LVU70
 107:Src/usart.c   ****     GPIO_InitStruct.Mode = GPIO_MODE_AF_PP;
 256              		.loc 1 107 25 is_stmt 0 view .LVU71
 257 0050 1C23     		movs	r3, #28
 258 0052 0593     		str	r3, [sp, #20]
 108:Src/usart.c   ****     GPIO_InitStruct.Pull = GPIO_NOPULL;
 259              		.loc 1 108 5 is_stmt 1 view .LVU72
 108:Src/usart.c   ****     GPIO_InitStruct.Pull = GPIO_NOPULL;
 260              		.loc 1 108 26 is_stmt 0 view .LVU73
 261 0054 0223     		movs	r3, #2
 262 0056 0693     		str	r3, [sp, #24]
 109:Src/usart.c   ****     GPIO_InitStruct.Speed = GPIO_SPEED_FREQ_VERY_HIGH;
 263              		.loc 1 109 5 is_stmt 1 view .LVU74
 110:Src/usart.c   ****     GPIO_InitStruct.Alternate = GPIO_AF7_USART2;
 264              		.loc 1 110 5 view .LVU75
 110:Src/usart.c   ****     GPIO_InitStruct.Alternate = GPIO_AF7_USART2;
 265              		.loc 1 110 27 is_stmt 0 view .LVU76
 266 0058 0323     		movs	r3, #3
 267 005a 0893     		str	r3, [sp, #32]
 111:Src/usart.c   ****     HAL_GPIO_Init(GPIOA, &GPIO_InitStruct);
 268              		.loc 1 111 5 is_stmt 1 view .LVU77
 111:Src/usart.c   ****     HAL_GPIO_Init(GPIOA, &GPIO_InitStruct);
 269              		.loc 1 111 31 is_stmt 0 view .LVU78
 270 005c 0723     		movs	r3, #7
 271 005e 0993     		str	r3, [sp, #36]
 112:Src/usart.c   **** 
 272              		.loc 1 112 5 is_stmt 1 view .LVU79
 273 0060 05A9     		add	r1, sp, #20
 274 0062 1748     		ldr	r0, .L19+12
 275              	.LVL7:
 112:Src/usart.c   **** 
 276              		.loc 1 112 5 is_stmt 0 view .LVU80
 277 0064 FFF7FEFF 		bl	HAL_GPIO_Init
 278              	.LVL8:
 279 0068 D9E7     		b	.L13
 280              	.LVL9:
 281              	.L18:
 124:Src/usart.c   ****   
 282              		.loc 1 124 5 is_stmt 1 view .LVU81
 283              	.LBB4:
 124:Src/usart.c   ****   
 284              		.loc 1 124 5 view .LVU82
 285 006a 0021     		movs	r1, #0
 286 006c 0391     		str	r1, [sp, #12]
 124:Src/usart.c   ****   
 287              		.loc 1 124 5 view .LVU83
 288 006e 134B     		ldr	r3, .L19+8
 289 0070 5A6C     		ldr	r2, [r3, #68]
 290 0072 42F02002 		orr	r2, r2, #32
 291 0076 5A64     		str	r2, [r3, #68]
 124:Src/usart.c   ****   
ARM GAS  /tmp/ccRzne9W.s 			page 9


 292              		.loc 1 124 5 view .LVU84
 293 0078 5A6C     		ldr	r2, [r3, #68]
 294 007a 02F02002 		and	r2, r2, #32
 295 007e 0392     		str	r2, [sp, #12]
 124:Src/usart.c   ****   
 296              		.loc 1 124 5 view .LVU85
 297 0080 039A     		ldr	r2, [sp, #12]
 298              	.LBE4:
 126:Src/usart.c   ****     /**USART6 GPIO Configuration    
 299              		.loc 1 126 5 view .LVU86
 300              	.LBB5:
 126:Src/usart.c   ****     /**USART6 GPIO Configuration    
 301              		.loc 1 126 5 view .LVU87
 302 0082 0491     		str	r1, [sp, #16]
 126:Src/usart.c   ****     /**USART6 GPIO Configuration    
 303              		.loc 1 126 5 view .LVU88
 304 0084 1A6B     		ldr	r2, [r3, #48]
 305 0086 42F00402 		orr	r2, r2, #4
 306 008a 1A63     		str	r2, [r3, #48]
 126:Src/usart.c   ****     /**USART6 GPIO Configuration    
 307              		.loc 1 126 5 view .LVU89
 308 008c 1B6B     		ldr	r3, [r3, #48]
 309 008e 03F00403 		and	r3, r3, #4
 310 0092 0493     		str	r3, [sp, #16]
 126:Src/usart.c   ****     /**USART6 GPIO Configuration    
 311              		.loc 1 126 5 view .LVU90
 312 0094 049B     		ldr	r3, [sp, #16]
 313              	.LBE5:
 132:Src/usart.c   ****     GPIO_InitStruct.Mode = GPIO_MODE_AF_PP;
 314              		.loc 1 132 5 view .LVU91
 132:Src/usart.c   ****     GPIO_InitStruct.Mode = GPIO_MODE_AF_PP;
 315              		.loc 1 132 25 is_stmt 0 view .LVU92
 316 0096 4FF4E073 		mov	r3, #448
 317 009a 0593     		str	r3, [sp, #20]
 133:Src/usart.c   ****     GPIO_InitStruct.Pull = GPIO_NOPULL;
 318              		.loc 1 133 5 is_stmt 1 view .LVU93
 133:Src/usart.c   ****     GPIO_InitStruct.Pull = GPIO_NOPULL;
 319              		.loc 1 133 26 is_stmt 0 view .LVU94
 320 009c 0223     		movs	r3, #2
 321 009e 0693     		str	r3, [sp, #24]
 134:Src/usart.c   ****     GPIO_InitStruct.Speed = GPIO_SPEED_FREQ_VERY_HIGH;
 322              		.loc 1 134 5 is_stmt 1 view .LVU95
 135:Src/usart.c   ****     GPIO_InitStruct.Alternate = GPIO_AF8_USART6;
 323              		.loc 1 135 5 view .LVU96
 135:Src/usart.c   ****     GPIO_InitStruct.Alternate = GPIO_AF8_USART6;
 324              		.loc 1 135 27 is_stmt 0 view .LVU97
 325 00a0 0323     		movs	r3, #3
 326 00a2 0893     		str	r3, [sp, #32]
 136:Src/usart.c   ****     HAL_GPIO_Init(GPIOC, &GPIO_InitStruct);
 327              		.loc 1 136 5 is_stmt 1 view .LVU98
 136:Src/usart.c   ****     HAL_GPIO_Init(GPIOC, &GPIO_InitStruct);
 328              		.loc 1 136 31 is_stmt 0 view .LVU99
 329 00a4 0823     		movs	r3, #8
 330 00a6 0993     		str	r3, [sp, #36]
 137:Src/usart.c   **** 
 331              		.loc 1 137 5 is_stmt 1 view .LVU100
 332 00a8 05A9     		add	r1, sp, #20
ARM GAS  /tmp/ccRzne9W.s 			page 10


 333 00aa 0648     		ldr	r0, .L19+16
 334              	.LVL10:
 137:Src/usart.c   **** 
 335              		.loc 1 137 5 is_stmt 0 view .LVU101
 336 00ac FFF7FEFF 		bl	HAL_GPIO_Init
 337              	.LVL11:
 338              		.loc 1 143 1 view .LVU102
 339 00b0 B5E7     		b	.L13
 340              	.L20:
 341 00b2 00BF     		.align	2
 342              	.L19:
 343 00b4 00440040 		.word	1073759232
 344 00b8 00140140 		.word	1073812480
 345 00bc 00380240 		.word	1073887232
 346 00c0 00000240 		.word	1073872896
 347 00c4 00080240 		.word	1073874944
 348              		.cfi_endproc
 349              	.LFE128:
 351              		.section	.text.HAL_USART_MspDeInit,"ax",%progbits
 352              		.align	1
 353              		.global	HAL_USART_MspDeInit
 354              		.syntax unified
 355              		.thumb
 356              		.thumb_func
 357              		.fpu fpv4-sp-d16
 359              	HAL_USART_MspDeInit:
 360              	.LVL12:
 361              	.LFB129:
 144:Src/usart.c   **** 
 145:Src/usart.c   **** void HAL_USART_MspDeInit(USART_HandleTypeDef* usartHandle)
 146:Src/usart.c   **** {
 362              		.loc 1 146 1 is_stmt 1 view -0
 363              		.cfi_startproc
 364              		@ args = 0, pretend = 0, frame = 0
 365              		@ frame_needed = 0, uses_anonymous_args = 0
 366              		.loc 1 146 1 is_stmt 0 view .LVU104
 367 0000 08B5     		push	{r3, lr}
 368              	.LCFI6:
 369              		.cfi_def_cfa_offset 8
 370              		.cfi_offset 3, -8
 371              		.cfi_offset 14, -4
 147:Src/usart.c   **** 
 148:Src/usart.c   ****   if(usartHandle->Instance==USART2)
 372              		.loc 1 148 3 is_stmt 1 view .LVU105
 373              		.loc 1 148 17 is_stmt 0 view .LVU106
 374 0002 0368     		ldr	r3, [r0]
 375              		.loc 1 148 5 view .LVU107
 376 0004 0E4A     		ldr	r2, .L27
 377 0006 9342     		cmp	r3, r2
 378 0008 03D0     		beq	.L25
 149:Src/usart.c   ****   {
 150:Src/usart.c   ****   /* USER CODE BEGIN USART2_MspDeInit 0 */
 151:Src/usart.c   **** 
 152:Src/usart.c   ****   /* USER CODE END USART2_MspDeInit 0 */
 153:Src/usart.c   ****     /* Peripheral clock disable */
 154:Src/usart.c   ****     __HAL_RCC_USART2_CLK_DISABLE();
 155:Src/usart.c   ****   
ARM GAS  /tmp/ccRzne9W.s 			page 11


 156:Src/usart.c   ****     /**USART2 GPIO Configuration    
 157:Src/usart.c   ****     PA2     ------> USART2_TX
 158:Src/usart.c   ****     PA3     ------> USART2_RX
 159:Src/usart.c   ****     PA4     ------> USART2_CK 
 160:Src/usart.c   ****     */
 161:Src/usart.c   ****     HAL_GPIO_DeInit(GPIOA, GPIO_PIN_2|GPIO_PIN_3|GPIO_PIN_4);
 162:Src/usart.c   **** 
 163:Src/usart.c   ****   /* USER CODE BEGIN USART2_MspDeInit 1 */
 164:Src/usart.c   **** 
 165:Src/usart.c   ****   /* USER CODE END USART2_MspDeInit 1 */
 166:Src/usart.c   ****   }
 167:Src/usart.c   ****   else if(usartHandle->Instance==USART6)
 379              		.loc 1 167 8 is_stmt 1 view .LVU108
 380              		.loc 1 167 10 is_stmt 0 view .LVU109
 381 000a 0E4A     		ldr	r2, .L27+4
 382 000c 9342     		cmp	r3, r2
 383 000e 0BD0     		beq	.L26
 384              	.LVL13:
 385              	.L21:
 168:Src/usart.c   ****   {
 169:Src/usart.c   ****   /* USER CODE BEGIN USART6_MspDeInit 0 */
 170:Src/usart.c   **** 
 171:Src/usart.c   ****   /* USER CODE END USART6_MspDeInit 0 */
 172:Src/usart.c   ****     /* Peripheral clock disable */
 173:Src/usart.c   ****     __HAL_RCC_USART6_CLK_DISABLE();
 174:Src/usart.c   ****   
 175:Src/usart.c   ****     /**USART6 GPIO Configuration    
 176:Src/usart.c   ****     PC6     ------> USART6_TX
 177:Src/usart.c   ****     PC7     ------> USART6_RX
 178:Src/usart.c   ****     PC8     ------> USART6_CK 
 179:Src/usart.c   ****     */
 180:Src/usart.c   ****     HAL_GPIO_DeInit(GPIOC, GPIO_PIN_6|GPIO_PIN_7|GPIO_PIN_8);
 181:Src/usart.c   **** 
 182:Src/usart.c   ****   /* USER CODE BEGIN USART6_MspDeInit 1 */
 183:Src/usart.c   **** 
 184:Src/usart.c   ****   /* USER CODE END USART6_MspDeInit 1 */
 185:Src/usart.c   ****   }
 186:Src/usart.c   **** } 
 386              		.loc 1 186 1 view .LVU110
 387 0010 08BD     		pop	{r3, pc}
 388              	.LVL14:
 389              	.L25:
 154:Src/usart.c   ****   
 390              		.loc 1 154 5 is_stmt 1 view .LVU111
 391 0012 02F5FA32 		add	r2, r2, #128000
 392 0016 136C     		ldr	r3, [r2, #64]
 393 0018 23F40033 		bic	r3, r3, #131072
 394 001c 1364     		str	r3, [r2, #64]
 161:Src/usart.c   **** 
 395              		.loc 1 161 5 view .LVU112
 396 001e 1C21     		movs	r1, #28
 397 0020 0948     		ldr	r0, .L27+8
 398              	.LVL15:
 161:Src/usart.c   **** 
 399              		.loc 1 161 5 is_stmt 0 view .LVU113
 400 0022 FFF7FEFF 		bl	HAL_GPIO_DeInit
 401              	.LVL16:
ARM GAS  /tmp/ccRzne9W.s 			page 12


 402 0026 F3E7     		b	.L21
 403              	.LVL17:
 404              	.L26:
 173:Src/usart.c   ****   
 405              		.loc 1 173 5 is_stmt 1 view .LVU114
 406 0028 02F59232 		add	r2, r2, #74752
 407 002c 536C     		ldr	r3, [r2, #68]
 408 002e 23F02003 		bic	r3, r3, #32
 409 0032 5364     		str	r3, [r2, #68]
 180:Src/usart.c   **** 
 410              		.loc 1 180 5 view .LVU115
 411 0034 4FF4E071 		mov	r1, #448
 412 0038 0448     		ldr	r0, .L27+12
 413              	.LVL18:
 180:Src/usart.c   **** 
 414              		.loc 1 180 5 is_stmt 0 view .LVU116
 415 003a FFF7FEFF 		bl	HAL_GPIO_DeInit
 416              	.LVL19:
 417              		.loc 1 186 1 view .LVU117
 418 003e E7E7     		b	.L21
 419              	.L28:
 420              		.align	2
 421              	.L27:
 422 0040 00440040 		.word	1073759232
 423 0044 00140140 		.word	1073812480
 424 0048 00000240 		.word	1073872896
 425 004c 00080240 		.word	1073874944
 426              		.cfi_endproc
 427              	.LFE129:
 429              		.comm	husart6,68,4
 430              		.comm	husart2,68,4
 431              		.text
 432              	.Letext0:
 433              		.file 2 "/usr/arm-none-eabi/include/machine/_default_types.h"
 434              		.file 3 "/usr/arm-none-eabi/include/sys/_stdint.h"
 435              		.file 4 "Drivers/CMSIS/Include/core_cm4.h"
 436              		.file 5 "Drivers/CMSIS/Device/ST/STM32F4xx/Include/system_stm32f4xx.h"
 437              		.file 6 "Drivers/CMSIS/Device/ST/STM32F4xx/Include/stm32f401xe.h"
 438              		.file 7 "/usr/arm-none-eabi/include/sys/lock.h"
 439              		.file 8 "/usr/arm-none-eabi/include/sys/_types.h"
 440              		.file 9 "/usr/lib/gcc/arm-none-eabi/8.3.0/include/stddef.h"
 441              		.file 10 "/usr/arm-none-eabi/include/sys/reent.h"
 442              		.file 11 "Drivers/STM32F4xx_HAL_Driver/Inc/stm32f4xx_hal_def.h"
 443              		.file 12 "Drivers/STM32F4xx_HAL_Driver/Inc/stm32f4xx_hal_gpio.h"
 444              		.file 13 "Drivers/STM32F4xx_HAL_Driver/Inc/stm32f4xx_hal_dma.h"
 445              		.file 14 "Drivers/STM32F4xx_HAL_Driver/Inc/stm32f4xx_hal_usart.h"
 446              		.file 15 "Inc/usart.h"
 447              		.file 16 "Inc/main.h"
ARM GAS  /tmp/ccRzne9W.s 			page 13

